(dp1
S'OriginalConfig'
p2
ccopy_reg
_reconstructor
p3
(cWMCore.Configuration
Configuration
p4
c__builtin__
object
p5
NtRp6
(dp7
S'Site'
p8
g3
(cWMCore.Configuration
ConfigSection
p9
g5
NtRp10
(dp11
S'_internal_documentation'
p12
S''
sS'_internal_settings'
p13
c__builtin__
set
p14
((lp15
S'storageSite'
p16
atRp17
sS'_internal_name'
p18
g8
sS'_internal_docstrings'
p19
(dp20
sS'_internal_children'
p21
g14
((ltRp22
sg16
S'T2_DE_DESY'
p23
sS'_internal_parent_ref'
p24
NsbsS'_internal_sections'
p25
(lp26
S'General'
p27
aS'JobType'
p28
aS'Data'
p29
ag8
asg27
g3
(g9
g5
NtRp30
(dp31
g12
S''
sg13
g14
((lp32
S'workArea'
p33
aS'requestName'
p34
atRp35
sg18
g27
sg19
(dp36
sg21
g14
((ltRp37
sg34
S'MC_MadGraph_TTJets_MassiveBinDECAY_TuneZ2star_8TeV'
p38
sg24
Nsg33
S'crab_projects'
p39
sbsS'_internal_webapps'
p40
(lp41
sS'_internal_components'
p42
(lp43
sg29
g3
(g9
g5
NtRp44
(dp45
S'inputDataset'
p46
S'/TTJets_MassiveBinDECAY_TuneZ2star_8TeV-madgraph-tauola/Summer12_DR53X-PU_S10_START53_V7C-v1/AODSIM'
p47
sS'publication'
p48
I00
sS'splitting'
p49
S'FileBased'
p50
sS'unitsPerJob'
p51
I1
sg12
S''
sg13
g14
((lp52
g46
aS'totalUnits'
p53
ag51
aS'inputDBS'
p54
ag49
ag48
atRp55
sg18
g29
sg54
S'global'
p56
sg19
(dp57
sg21
g14
((ltRp58
sg24
Nsg53
I100
sbsg28
g3
(g9
g5
NtRp59
(dp60
S'outputFiles'
p61
(lp62
S'BTAG_JET_TRACK_SEL.yoda'
p63
asg12
S''
sg13
g14
((lp64
S'psetName'
p65
aS'pluginName'
p66
ag61
atRp67
sg18
g28
sg19
(dp68
sg66
S'Analysis'
p69
sg21
g14
((ltRp70
sg65
S'/nfs/dust/cms/user/shwillia/CMSSW_7_4_0_pre8/src/GeneratorInterface/RivetInterface/test/runRivetAnalyzer_cfg.py'
p71
sg24
NsbsbsS'voGroup'
p72
S''
sS'Server'
p73
S'cmsweb.cern.ch'
p74
sS'instance'
p75
S'prod'
p76
sS'RequestName'
p77
S'150407_163912:shwillia_crab_MC_MadGraph_TTJets_MassiveBinDECAY_TuneZ2star_8TeV'
p78
sS'voRole'
p79
S''
sS'Port'
p80
S''
s.