ccopy_reg
_reconstructor
p0
(cFWCore.ParameterSet.Config
Process
p1
c__builtin__
object
p2
Ntp3
Rp4
(dp5
S'MessageLogger'
p6
g0
(cFWCore.ParameterSet.Modules
Service
p7
g2
Ntp8
Rp9
(dp10
S'_isFrozen'
p11
I00
sS'suppressInfo'
p12
g0
(cFWCore.ParameterSet.Types
vstring
p13
c__builtin__
list
p14
(lp15
tp16
Rp17
(dp18
g11
I00
sS'_ParameterTypeBase__isTracked'
p19
I00
sS'_isModified'
p20
I00
sS'_nPerLine'
p21
I1
sbsS'suppressDebug'
p22
g0
(g13
g14
(lp23
tp24
Rp25
(dp26
g11
I00
sg19
I00
sg20
I00
sg21
I1
sbsS'cout'
p27
g0
(cFWCore.ParameterSet.Types
PSet
p28
g2
Ntp29
Rp30
(dp31
g11
I00
sg19
I00
sS'placeholder'
p32
g0
(cFWCore.ParameterSet.Types
bool
p33
g2
Ntp34
Rp35
(dp36
g11
I00
sg19
I00
sS'_value'
p37
I01
sg20
I00
sbsg20
I00
sS'_Parameterizable__parameterNames'
p38
(lp39
g32
asbsS'_lineNumber'
p40
I10
sS'debugModules'
p41
g0
(g13
g14
(lp42
tp43
Rp44
(dp45
g11
I00
sg19
I00
sg20
I00
sg21
I1
sbsS'_TypedParameterizable__type'
p46
g6
sS'fwkJobReports'
p47
g0
(g13
g14
(lp48
S'FrameworkJobReport'
p49
atp50
Rp51
(dp52
g11
I00
sg19
I00
sg20
I00
sg21
I1
sbsg38
(lp53
g12
aS'debugs'
p54
ag22
ag27
aS'cerr_stats'
p55
aS'warnings'
p56
aS'default'
p57
aS'statistics'
p58
aS'cerr'
p59
ag49
aS'suppressWarning'
p60
aS'errors'
p61
aS'destinations'
p62
ag41
aS'infos'
p63
aS'categories'
p64
ag47
asg58
g0
(g13
g14
(lp65
g55
atp66
Rp67
(dp68
g11
I00
sg19
I00
sg20
I00
sg21
I1
sbsS'_filename'
p69
S'/cvmfs/cms.cern.ch/slc6_amd64_gcc491/cms/cmssw/CMSSW_7_4_0_pre8/python/FWCore/ParameterSet/Modules.py'
p70
sg62
g0
(g13
g14
(lp71
g56
ag61
ag63
ag54
ag27
ag59
atp72
Rp73
(dp74
g11
I00
sg19
I00
sg20
I00
sg21
I1
sbsg54
g0
(g28
g2
Ntp75
Rp76
(dp77
g11
I00
sg19
I00
sg32
g0
(g33
g2
Ntp78
Rp79
(dp80
g11
I00
sg19
I00
sg37
I01
sg20
I00
sbsg20
I00
sg38
(lp81
g32
asbsg56
g0
(g28
g2
Ntp82
Rp83
(dp84
g11
I00
sg19
I00
sg32
g0
(g33
g2
Ntp85
Rp86
(dp87
g11
I00
sg19
I00
sg37
I01
sg20
I00
sbsg20
I00
sg38
(lp88
g32
asbsg61
g0
(g28
g2
Ntp89
Rp90
(dp91
g11
I00
sg19
I00
sg32
g0
(g33
g2
Ntp92
Rp93
(dp94
g11
I00
sg19
I00
sg37
I01
sg20
I00
sbsg20
I00
sg38
(lp95
g32
asbsg49
g0
(g28
g2
Ntp96
Rp97
(dp98
g11
I00
sg19
I00
sg20
I00
sg57
g0
(g28
g2
Ntp99
Rp100
(dp101
g11
I00
sg19
I00
sS'limit'
p102
g0
(cFWCore.ParameterSet.Types
int32
p103
g2
Ntp104
Rp105
(dp106
g11
I00
sg19
I00
sg37
I0
sg20
I00
sbsg20
I00
sg38
(lp107
g102
asbsS'FwkJob'
p108
g0
(g28
g2
Ntp109
Rp110
(dp111
g11
I00
sg19
I00
sg20
I00
sg102
g0
(g103
g2
Ntp112
Rp113
(dp114
g11
I00
sg19
I00
sg37
I10000000
sg20
I00
sbsg38
(lp115
S'optionalPSet'
p116
ag102
asg116
g0
(g33
g2
Ntp117
Rp118
(dp119
g11
I00
sg19
I00
sg37
I01
sg20
I00
sbsbsg38
(lp120
g57
ag116
ag108
asg116
g0
(g33
g2
Ntp121
Rp122
(dp123
g11
I00
sg19
I00
sg37
I01
sg20
I00
sbsbsg60
g0
(g13
g14
(lp124
tp125
Rp126
(dp127
g11
I00
sg19
I00
sg20
I00
sg21
I1
sbsg63
g0
(g28
g2
Ntp128
Rp129
(dp130
g11
I00
sg19
I00
sg20
I00
sS'Root_NoDictionary'
p131
g0
(g28
g2
Ntp132
Rp133
(dp134
g11
I00
sg19
I00
sg20
I00
sg102
g0
(g103
g2
Ntp135
Rp136
(dp137
g11
I00
sg19
I00
sg37
I0
sg20
I00
sbsg38
(lp138
g116
ag102
asg116
g0
(g33
g2
Ntp139
Rp140
(dp141
g11
I00
sg19
I00
sg37
I01
sg20
I00
sbsbsg38
(lp142
g116
ag131
ag32
asg116
g0
(g33
g2
Ntp143
Rp144
(dp145
g11
I00
sg19
I00
sg37
I01
sg20
I00
sbsg32
g0
(g33
g2
Ntp146
Rp147
(dp148
g11
I00
sg19
I00
sg37
I01
sg20
I00
sbsbsg64
g0
(g13
g14
(lp149
g108
aS'FwkReport'
p150
aS'FwkSummary'
p151
ag131
atp152
Rp153
(dp154
g11
I00
sg19
I00
sg20
I00
sg21
I1
sbsg20
I00
sg55
g0
(g28
g2
Ntp155
Rp156
(dp157
g11
I00
sg19
I00
sg20
I00
sg116
g0
(g33
g2
Ntp158
Rp159
(dp160
g11
I00
sg19
I00
sg37
I01
sg20
I00
sbsg38
(lp161
S'threshold'
p162
aS'output'
p163
ag116
asg162
g0
(cFWCore.ParameterSet.Types
string
p164
g2
Ntp165
Rp166
(dp167
g11
I00
sg19
I00
sg37
S'WARNING'
p168
sg20
I00
sbsg163
g0
(g164
g2
Ntp169
Rp170
(dp171
g11
I00
sg19
I00
sg37
g59
sg20
I00
sbsbsg57
g0
(g28
g2
Ntp172
Rp173
(dp174
g11
I00
sg19
I00
sg20
I00
sg38
(lp175
sbsg59
g0
(g28
g2
Ntp176
Rp177
(dp178
g11
I00
sg19
I00
sS'noTimeStamps'
p179
g0
(g33
g2
Ntp180
Rp181
(dp182
g11
I00
sg19
I00
sg37
I00
sg20
I00
sbsg150
g0
(g28
g2
Ntp183
Rp184
(dp185
g11
I00
sg19
I00
sg20
I01
sS'reportEvery'
p186
g0
(g103
g2
Ntp187
Rp188
(dp189
g11
I00
sg19
I00
sg37
I10000
sg20
I00
sbsg102
g0
(g103
g2
Ntp190
Rp191
(dp192
g11
I00
sg19
I00
sg37
I10000000
sg20
I00
sbsg38
(lp193
g186
ag116
ag102
asg116
g0
(g33
g2
Ntp194
Rp195
(dp196
g11
I00
sg19
I00
sg37
I01
sg20
I00
sbsbsg20
I00
sg57
g0
(g28
g2
Ntp197
Rp198
(dp199
g11
I00
sg19
I00
sg102
g0
(g103
g2
Ntp200
Rp201
(dp202
g11
I00
sg19
I00
sg37
I10000000
sg20
I00
sbsg20
I00
sg38
(lp203
g102
asbsg131
g0
(g28
g2
Ntp204
Rp205
(dp206
g11
I00
sg19
I00
sg20
I00
sg102
g0
(g103
g2
Ntp207
Rp208
(dp209
g11
I00
sg19
I00
sg37
I0
sg20
I00
sbsg38
(lp210
g116
ag102
asg116
g0
(g33
g2
Ntp211
Rp212
(dp213
g11
I00
sg19
I00
sg37
I01
sg20
I00
sbsbsS'INFO'
p214
g0
(g28
g2
Ntp215
Rp216
(dp217
g11
I00
sg19
I00
sg102
g0
(g103
g2
Ntp218
Rp219
(dp220
g11
I00
sg19
I00
sg37
I0
sg20
I00
sbsg20
I00
sg38
(lp221
g102
asbsg116
g0
(g33
g2
Ntp222
Rp223
(dp224
g11
I00
sg19
I00
sg37
I01
sg20
I00
sbsg108
g0
(g28
g2
Ntp225
Rp226
(dp227
g11
I00
sg19
I00
sg20
I00
sg102
g0
(g103
g2
Ntp228
Rp229
(dp230
g11
I00
sg19
I00
sg37
I0
sg20
I00
sbsg38
(lp231
g116
ag102
asg116
g0
(g33
g2
Ntp232
Rp233
(dp234
g11
I00
sg19
I00
sg37
I01
sg20
I00
sbsbsg151
g0
(g28
g2
Ntp235
Rp236
(dp237
g11
I00
sg19
I00
sg20
I00
sg186
g0
(g103
g2
Ntp238
Rp239
(dp240
g11
I00
sg19
I00
sg37
I1
sg20
I00
sbsg102
g0
(g103
g2
Ntp241
Rp242
(dp243
g11
I00
sg19
I00
sg37
I10000000
sg20
I00
sbsg38
(lp244
g186
ag116
ag102
asg116
g0
(g33
g2
Ntp245
Rp246
(dp247
g11
I00
sg19
I00
sg37
I01
sg20
I00
sbsbsg38
(lp248
g214
ag179
ag150
ag57
ag131
ag162
ag108
ag151
ag116
asg162
g0
(g164
g2
Ntp249
Rp250
(dp251
g11
I00
sg19
I00
sg37
g214
sg20
I00
sbsbsbsS'_Process__sequences'
p252
(dp253
sS'_Process__services'
p254
(dp255
g6
g9
ssS'_Process__source'
p256
g0
(cFWCore.ParameterSet.Modules
Source
p257
g2
Ntp258
Rp259
(dp260
g38
(lp261
S'fileNames'
p262
asg11
I00
sg20
I00
sg40
I175
sg69
S'/cvmfs/cms.cern.ch/slc6_amd64_gcc491/cms/cmssw/CMSSW_7_4_0_pre8/python/FWCore/ParameterSet/Modules.py'
p263
sg262
g0
(g13
g14
(lp264
S'root://cmsxrootd.fnal.gov//store/mc/Summer12_DR53X/QCD_Pt-15to3000_TuneEE3C_Flat_8TeV_herwigpp/AODSIM/PU_S10_START53_V7A-v1/00000/001A0DC8-C313-E211-BCCB-00261894397B.root'
p265
atp266
Rp267
(dp268
g11
I00
sg19
I00
sg20
I00
sg21
I1
sbsg46
S'PoolSource'
p269
sbsS'_Process__aliases'
p270
(dp271
sS'_Process__psets'
p272
(dp273
S'maxEvents'
p274
g0
(g28
g2
Ntp275
Rp276
(dp277
g11
I00
sg19
I00
sg20
I00
sg38
(lp278
S'input'
p279
asS'_Labelable__label'
p280
g274
sg279
g0
(g103
g2
Ntp281
Rp282
(dp283
g11
I00
sg19
I00
sg37
I10000
sg20
I00
sbsbssS'generator'
p284
g0
(cFWCore.ParameterSet.Modules
EDProducer
p285
g2
Ntp286
Rp287
(dp288
g38
(lp289
S'genParticles'
p290
aS'genEventInfo'
p291
asg11
I00
sg20
I00
sg40
I5
sg69
S'/nfs/dust/cms/user/shwillia/CMSSW_7_4_0_pre8/python/GeneratorInterface/RivetInterface/genParticles2HepMC_cfi.py'
p292
sg46
S'GenParticles2HepMCConverter'
p293
sg280
g284
sg290
g0
(cFWCore.ParameterSet.Types
InputTag
p294
g2
Ntp295
Rp296
(dp297
g11
I00
sg19
I01
sg20
I00
sS'_InputTag__moduleLabel'
p298
g290
sS'_InputTag__processName'
p299
S''
p300
sS'_InputTag__productInstance'
p301
g300
sbsg291
g0
(g294
g2
Ntp302
Rp303
(dp304
g11
I00
sg19
I01
sg20
I00
sg298
g284
sg299
g300
sg301
g300
sbsbsS'_Process__essources'
p305
(dp306
S'HepPDTESSource'
p307
g0
(cFWCore.ParameterSet.Modules
ESSource
p308
g2
Ntp309
Rp310
(dp311
g38
(lp312
S'pdtFileName'
p313
asg11
I00
sg313
g0
(cFWCore.ParameterSet.Types
FileInPath
p314
g2
Ntp315
Rp316
(dp317
g11
I00
sg19
I01
sg37
S'SimGeneral/HepPDTESSource/data/pythiaparticle.tbl'
p318
sg20
I00
sbsg20
I00
sg40
I4
sg69
S'/cvmfs/cms.cern.ch/slc6_amd64_gcc491/cms/cmssw/CMSSW_7_4_0_pre8/python/SimGeneral/HepPDTESSource/pythiapdt_cfi.py'
p319
sg280
g307
sg46
g307
sbssg269
g259
sg274
g276
sS'source'
p320
g259
sS'_Process__vpsets'
p321
(dp322
sS'_Process__name'
p323
S'runRivetAnalysis'
p324
sS'_cloneToObjectDict'
p325
(dp326
I44078096
g276
sI44079056
g0
(cFWCore.ParameterSet.Modules
EDAnalyzer
p327
g2
Ntp328
Rp329
(dp330
g38
(lp331
S'UseExternalWeight'
p332
aS'OutputFile'
p333
aS'AnalysisNames'
p334
aS'ProduceDQMOutput'
p335
aS'HepMCCollection'
p336
aS'CrossSection'
p337
aS'DoFinalize'
p338
aS'GenEventInfoCollection'
p339
asg11
I00
sg333
g0
(g164
g2
Ntp340
Rp341
(dp342
g11
I00
sg19
I01
sg37
S'BTAG_JET_TRACK_SEL.yoda'
p343
sg20
I00
sbsg20
I01
sg332
g0
(g33
g2
Ntp344
Rp345
(dp346
g11
I00
sg19
I01
sg37
I00
sg20
I00
sbsg69
S'/nfs/dust/cms/user/shwillia/CMSSW_7_4_0_pre8/python/GeneratorInterface/RivetInterface/rivetAnalyzer_cfi.py'
p347
sg334
g0
(g13
g14
(lp348
S'BTAG_JET_TRACK_SEL'
p349
atp350
Rp351
(dp352
g11
I00
sg19
I01
sg20
I00
sg21
I1
sbsg335
g0
(g33
g2
Ntp353
Rp354
(dp355
g11
I00
sg19
I01
sg37
I00
sg20
I00
sbsg40
I12
sg280
S'rivetAnalyzer'
p356
sg336
g0
(g294
g2
Ntp357
Rp358
(dp359
g11
I00
sg19
I01
sg20
I00
sg298
g284
sg299
g300
sg301
g300
sbsg337
g0
(cFWCore.ParameterSet.Types
double
p360
g2
Ntp361
Rp362
(dp363
g11
I00
sg19
I01
sg37
I1000
sg20
I00
sbsg338
g0
(g33
g2
Ntp364
Rp365
(dp366
g11
I00
sg19
I01
sg37
I01
sg20
I00
sbsg339
g0
(g294
g2
Ntp367
Rp368
(dp369
g11
I00
sg19
I01
sg20
I00
sg298
g284
sg299
g300
sg301
g300
sbsg46
S'RivetAnalyzer'
p370
sbsI44079504
g287
sI44079120
g310
sI44079696
g0
(cFWCore.ParameterSet.SequenceTypes
Path
p371
g2
Ntp372
Rp373
(dp374
g11
I00
sS'_seq'
p375
g0
(cFWCore.ParameterSet.SequenceTypes
_SequenceCollection
p376
g2
Ntp377
Rp378
(dp379
S'_collection'
p380
(lp381
g287
ag329
asbsg20
I00
sg280
S'p'
p382
sbssS'_Process__esprefers'
p383
(dp384
sg356
g329
sS'_Process__schedule'
p385
NsS'_Process__partialschedules'
p386
(dp387
sg307
g310
sS'_Process__outputmodules'
p388
(dp389
sS'_Process__analyzers'
p390
(dp391
g356
g329
ssS'_Process__InExtendCall'
p392
I00
sS'_Process__modifiers'
p393
(tsS'_Process__producers'
p394
(dp395
g284
g287
ssS'_Process__filters'
p396
(dp397
sS'_Process__looper'
p398
NsS'_Process__endpaths'
p399
g0
(cFWCore.ParameterSet.DictTypes
SortedKeysDict
p400
c__builtin__
dict
p401
(dp402
tp403
Rp404
(dp405
S'list'
p406
(lp407
sbsS'_Process__esproducers'
p408
(dp409
sg382
g373
sS'_Process__paths'
p410
g0
(g400
g401
(dp411
g382
g373
stp412
Rp413
(dp414
g406
(lp415
g382
asbsS'_Process__subProcess'
p416
NsS'_Process__isStrict'
p417
I00
sb.