(dp1
S'OriginalConfig'
p2
ccopy_reg
_reconstructor
p3
(cWMCore.Configuration
Configuration
p4
c__builtin__
object
p5
NtRp6
(dp7
S'Site'
p8
g3
(cWMCore.Configuration
ConfigSection
p9
g5
NtRp10
(dp11
S'_internal_documentation'
p12
S''
sS'_internal_settings'
p13
c__builtin__
set
p14
((lp15
S'storageSite'
p16
atRp17
sS'_internal_name'
p18
g8
sS'_internal_docstrings'
p19
(dp20
sS'_internal_children'
p21
g14
((ltRp22
sg16
S'T2_DE_DESY'
p23
sS'_internal_parent_ref'
p24
NsbsS'_internal_sections'
p25
(lp26
S'General'
p27
aS'JobType'
p28
aS'Data'
p29
ag8
asg27
g3
(g9
g5
NtRp30
(dp31
g12
S''
sg13
g14
((lp32
S'workArea'
p33
aS'requestName'
p34
atRp35
sg18
g27
sg19
(dp36
sg21
g14
((ltRp37
sg34
S'MC_HerwigPP_QCD_Pt-15to3000_TuneEE3C_Flat_8TeV'
p38
sg24
Nsg33
S'crab_projects'
p39
sbsS'_internal_webapps'
p40
(lp41
sS'_internal_components'
p42
(lp43
sg29
g3
(g9
g5
NtRp44
(dp45
S'inputDataset'
p46
S'/QCD_Pt-15to3000_TuneEE3C_Flat_8TeV_herwigpp/Summer12_DR53X-PU_S10_START53_V7A-v1/AODSIM'
p47
sS'publication'
p48
I00
sS'splitting'
p49
S'FileBased'
p50
sS'unitsPerJob'
p51
I1
sg12
S''
sg13
g14
((lp52
g46
ag51
ag48
aS'inputDBS'
p53
ag49
atRp54
sg18
g29
sg53
S'global'
p55
sg19
(dp56
sg21
g14
((ltRp57
sg24
Nsbsg28
g3
(g9
g5
NtRp58
(dp59
S'outputFiles'
p60
(lp61
S'BTAG_JET_TRACK_SEL.yoda'
p62
asg12
S''
sg13
g14
((lp63
S'psetName'
p64
aS'pluginName'
p65
ag60
atRp66
sg18
g28
sg19
(dp67
sg65
S'Analysis'
p68
sg21
g14
((ltRp69
sg64
S'/nfs/dust/cms/user/shwillia/CMSSW_7_4_0_pre8/src/GeneratorInterface/RivetInterface/test/runRivetAnalyzer_cfg.py'
p70
sg24
NsbsbsS'voGroup'
p71
S''
sS'Server'
p72
S'cmsweb.cern.ch'
p73
sS'instance'
p74
S'prod'
p75
sS'RequestName'
p76
S'150402_120752:shwillia_crab_MC_HerwigPP_QCD_Pt-15to3000_TuneEE3C_Flat_8TeV'
p77
sS'voRole'
p78
S''
sS'Port'
p79
S''
s.